target datalayout = "e-m:e-p270:32:32-p271:32:32-p272:64:64-i64:64-i128:128-f80:128-n8:16:32:64-S128"
target triple = "x86_64-pc-linux-gnu"

@.str.3 = private unnamed_addr constant [8 x i8] c"Palette\00", align 1
@.str.4 = private unnamed_addr constant [14 x i8] c"New Extradata\00", align 1
@.str.5 = private unnamed_addr constant [13 x i8] c"Param Change\00", align 1
@.str.6 = private unnamed_addr constant [13 x i8] c"H263 MB Info\00", align 1
@.str.7 = private unnamed_addr constant [12 x i8] c"Replay Gain\00", align 1
@.str.8 = private unnamed_addr constant [15 x i8] c"Display Matrix\00", align 1
@.str.9 = private unnamed_addr constant [10 x i8] c"Stereo 3D\00", align 1
@.str.10 = private unnamed_addr constant [19 x i8] c"Audio Service Type\00", align 1
@.str.11 = private unnamed_addr constant [14 x i8] c"Quality stats\00", align 1
@.str.12 = private unnamed_addr constant [15 x i8] c"Fallback track\00", align 1
@.str.13 = private unnamed_addr constant [15 x i8] c"CPB properties\00", align 1
@.str.14 = private unnamed_addr constant [13 x i8] c"Skip Samples\00", align 1
@.str.15 = private unnamed_addr constant [13 x i8] c"JP Dual Mono\00", align 1
@.str.16 = private unnamed_addr constant [17 x i8] c"Strings Metadata\00", align 1
@.str.17 = private unnamed_addr constant [18 x i8] c"Subtitle Position\00", align 1
@.str.18 = private unnamed_addr constant [25 x i8] c"Matroska BlockAdditional\00", align 1
@.str.19 = private unnamed_addr constant [10 x i8] c"WebVTT ID\00", align 1
@.str.20 = private unnamed_addr constant [16 x i8] c"WebVTT Settings\00", align 1
@.str.21 = private unnamed_addr constant [16 x i8] c"Metadata Update\00", align 1
@.str.22 = private unnamed_addr constant [17 x i8] c"MPEGTS Stream ID\00", align 1
@.str.23 = private unnamed_addr constant [27 x i8] c"Mastering display metadata\00", align 1
@.str.24 = private unnamed_addr constant [29 x i8] c"Content light level metadata\00", align 1
@.str.25 = private unnamed_addr constant [18 x i8] c"Spherical Mapping\00", align 1
@.str.26 = private unnamed_addr constant [20 x i8] c"A53 Closed Captions\00", align 1
@.str.27 = private unnamed_addr constant [31 x i8] c"Encryption initialization data\00", align 1
@.str.28 = private unnamed_addr constant [16 x i8] c"Encryption info\00", align 1
@.str.29 = private unnamed_addr constant [31 x i8] c"Active Format Description data\00", align 1
@.str.30 = private unnamed_addr constant [24 x i8] c"Producer Reference Time\00", align 1
@.str.31 = private unnamed_addr constant [12 x i8] c"ICC Profile\00", align 1
@.str.32 = private unnamed_addr constant [26 x i8] c"DOVI configuration record\00", align 1
@.str.33 = private unnamed_addr constant [28 x i8] c"SMPTE ST 12-1:2014 timecode\00", align 1
@.str.34 = private unnamed_addr constant [40 x i8] c"HDR10+ Dynamic Metadata (SMPTE 2094-40)\00", align 1
@.str.35 = private unnamed_addr constant [28 x i8] c"Ambient viewing environment\00", align 1
@.str.36 = private unnamed_addr constant [29 x i8] c"IAMF Mix Gain Parameter Data\00", align 1
@.str.37 = private unnamed_addr constant [34 x i8] c"IAMF Demixing Info Parameter Data\00", align 1
@.str.38 = private unnamed_addr constant [36 x i8] c"IAMF Recon Gain Info Parameter Data\00", align 1
@.str.39 = private unnamed_addr constant [15 x i8] c"Frame Cropping\00", align 1
@.str.40 = private unnamed_addr constant [15 x i8] c"LCEVC NAL data\00", align 1

; Function Attrs: nounwind uwtable
define ptr @av_packet_side_data_name(i32 noundef %0) #0 {
  %2 = alloca ptr, align 8
  %3 = alloca i32, align 4
  store i32 %0, ptr %3, align 4, !tbaa !28
  %4 = load i32, ptr %3, align 4, !tbaa !28
  switch i32 %4, label %43 [
    i32 0, label %5
    i32 1, label %6
    i32 2, label %7
    i32 3, label %8
    i32 4, label %9
    i32 5, label %10
    i32 6, label %11
    i32 7, label %12
    i32 8, label %13
    i32 9, label %14
    i32 10, label %15
    i32 11, label %16
    i32 12, label %17
    i32 13, label %18
    i32 14, label %19
    i32 15, label %20
    i32 16, label %21
    i32 17, label %22
    i32 18, label %23
    i32 19, label %24
    i32 20, label %25
    i32 22, label %26
    i32 21, label %27
    i32 23, label %28
    i32 24, label %29
    i32 25, label %30
    i32 26, label %31
    i32 27, label %32
    i32 28, label %33
    i32 29, label %34
    i32 30, label %35
    i32 31, label %36
    i32 35, label %37
    i32 32, label %38
    i32 33, label %39
    i32 34, label %40
    i32 36, label %41
    i32 37, label %42
  ]

5:                                                ; preds = %1
  store ptr @.str.3, ptr %2, align 8
  br label %44

6:                                                ; preds = %1
  store ptr @.str.4, ptr %2, align 8
  br label %44

7:                                                ; preds = %1
  store ptr @.str.5, ptr %2, align 8
  br label %44

8:                                                ; preds = %1
  store ptr @.str.6, ptr %2, align 8
  br label %44

9:                                                ; preds = %1
  store ptr @.str.7, ptr %2, align 8
  br label %44

10:                                               ; preds = %1
  store ptr @.str.8, ptr %2, align 8
  br label %44

11:                                               ; preds = %1
  store ptr @.str.9, ptr %2, align 8
  br label %44

12:                                               ; preds = %1
  store ptr @.str.10, ptr %2, align 8
  br label %44

13:                                               ; preds = %1
  store ptr @.str.11, ptr %2, align 8
  br label %44

14:                                               ; preds = %1
  store ptr @.str.12, ptr %2, align 8
  br label %44

15:                                               ; preds = %1
  store ptr @.str.13, ptr %2, align 8
  br label %44

16:                                               ; preds = %1
  store ptr @.str.14, ptr %2, align 8
  br label %44

17:                                               ; preds = %1
  store ptr @.str.15, ptr %2, align 8
  br label %44

18:                                               ; preds = %1
  store ptr @.str.16, ptr %2, align 8
  br label %44

19:                                               ; preds = %1
  store ptr @.str.17, ptr %2, align 8
  br label %44

20:                                               ; preds = %1
  store ptr @.str.18, ptr %2, align 8
  br label %44

21:                                               ; preds = %1
  store ptr @.str.19, ptr %2, align 8
  br label %44

22:                                               ; preds = %1
  store ptr @.str.20, ptr %2, align 8
  br label %44

23:                                               ; preds = %1
  store ptr @.str.21, ptr %2, align 8
  br label %44

24:                                               ; preds = %1
  store ptr @.str.22, ptr %2, align 8
  br label %44

25:                                               ; preds = %1
  store ptr @.str.23, ptr %2, align 8
  br label %44

26:                                               ; preds = %1
  store ptr @.str.24, ptr %2, align 8
  br label %44

27:                                               ; preds = %1
  store ptr @.str.25, ptr %2, align 8
  br label %44

28:                                               ; preds = %1
  store ptr @.str.26, ptr %2, align 8
  br label %44

29:                                               ; preds = %1
  store ptr @.str.27, ptr %2, align 8
  br label %44

30:                                               ; preds = %1
  store ptr @.str.28, ptr %2, align 8
  br label %44

31:                                               ; preds = %1
  store ptr @.str.29, ptr %2, align 8
  br label %44

32:                                               ; preds = %1
  store ptr @.str.30, ptr %2, align 8
  br label %44

33:                                               ; preds = %1
  store ptr @.str.31, ptr %2, align 8
  br label %44

34:                                               ; preds = %1
  store ptr @.str.32, ptr %2, align 8
  br label %44

35:                                               ; preds = %1
  store ptr @.str.33, ptr %2, align 8
  br label %44

36:                                               ; preds = %1
  store ptr @.str.34, ptr %2, align 8
  br label %44

37:                                               ; preds = %1
  store ptr @.str.35, ptr %2, align 8
  br label %44

38:                                               ; preds = %1
  store ptr @.str.36, ptr %2, align 8
  br label %44

39:                                               ; preds = %1
  store ptr @.str.37, ptr %2, align 8
  br label %44

40:                                               ; preds = %1
  store ptr @.str.38, ptr %2, align 8
  br label %44

41:                                               ; preds = %1
  store ptr @.str.39, ptr %2, align 8
  br label %44

42:                                               ; preds = %1
  store ptr @.str.40, ptr %2, align 8
  br label %44

43:                                               ; preds = %1
  store ptr null, ptr %2, align 8
  br label %44

44:                                               ; preds = %43, %42, %41, %40, %39, %38, %37, %36, %35, %34, %33, %32, %31, %30, %29, %28, %27, %26, %25, %24, %23, %22, %21, %20, %19, %18, %17, %16, %15, %14, %13, %12, %11, %10, %9, %8, %7, %6, %5
  %45 = load ptr, ptr %2, align 8
  ret ptr %45
}